ccopy_reg
_reconstructor
p0
(cgoogle.oauth2.credentials
Credentials
p1
c__builtin__
object
p2
Ntp3
Rp4
(dp5
S'_token_uri'
p6
Vhttps://oauth2.googleapis.com/token
p7
sS'_client_secret'
p8
VDqQr5_QlTAyrSrOb-p6WMTPC
p9
sS'_id_token'
p10
NsS'token'
p11
Vya29.GlsxByynFK46cU5nXt2wGhH3CWyWQiFNbVXET0uAagcgdYaJM9UnbV028-cPH71RUGSClE51l3ySwkGGkMs4ZjSZR2ji_Qtv6LDRqSpHinDs-Ybkabda3_CSyQQh
p12
sS'_refresh_token'
p13
V1/k0oeSsIuV35ZVUPZqCZ0wzy0rfdDiz2SJgJvOlC3UO4
p14
sS'_scopes'
p15
(lp16
S'https://www.googleapis.com/auth/spreadsheets.readonly'
p17
asS'_client_id'
p18
V505542745918-pi1js73j1mv3bssle68ehd7bq31p07i4.apps.googleusercontent.com
p19
sS'expiry'
p20
cdatetime
datetime
p21
(S'\x07\xe3\x06\x18\x07,,\x05n\xa0'
p22
tp23
Rp24
sb.